target datalayout = "e-m:e-p270:32:32-p271:32:32-p272:64:64-i64:64-i128:128-f80:128-n8:16:32:64-S128"
target triple = "x86_64-pc-linux-gnu"

%struct.rectangle = type { [2 x double], [2 x double] }
%struct.treenode_t = type { double, double, %struct.rectangle, ptr, ptr, %union.anon, i32, i64 }
%union.anon = type { ptr }
%struct.Agobj_s = type { %struct.Agtag_s, ptr }
%struct.Agtag_s = type { i32, i64 }
%struct.Agraphinfo_t = type { %struct.Agrec_s, ptr, ptr, %struct.boxf, [4 x %struct.pointf_s], i8, i8, i8, i8, i32, double, double, i16, ptr, ptr, ptr, ptr, i32, ptr, ptr, ptr, ptr, i16, i16, i32, ptr, ptr, ptr, ptr, ptr, i32, ptr, ptr, %struct.nlist_t, ptr, ptr, i32, i32, i8, i8, i32, i32, i32, ptr, ptr, ptr, ptr, i8, i8, i8, i8, i8 }
%struct.Agrec_s = type { ptr, ptr }
%struct.boxf = type { %struct.pointf_s, %struct.pointf_s }
%struct.pointf_s = type { double, double }
%struct.nlist_t = type { ptr, i64 }
%struct.Agnodeinfo_t = type { %struct.Agrec_s, ptr, ptr, %struct.pointf_s, double, double, %struct.boxf, double, double, double, double, double, ptr, ptr, ptr, i8, i8, i8, i8, i32, i32, i32, ptr, double, i8, i8, ptr, ptr, i8, i64, i8, i8, i8, ptr, ptr, %struct.elist, %struct.elist, %struct.elist, %struct.elist, %struct.elist, ptr, i32, ptr, i32, i32, double, %struct.elist, %struct.elist, %struct.elist, %struct.elist, ptr, i32, i32, i32, [1 x double] }
%struct.elist = type { ptr, i64 }

@stderr = external global ptr, align 8
@Verbose = external global i8, align 1
@.str.6 = private unnamed_addr constant [35 x i8] c"%s coord %.5g %.5g ht %f width %f\0A\00", align 1
@N_fontsize = external global ptr, align 8
@.str.7 = private unnamed_addr constant [6 x i8] c"%.03f\00", align 1

; Function Attrs: nounwind uwtable
define internal void @finishNode(ptr noundef %0) #0 {
  %2 = alloca ptr, align 8
  %3 = alloca [40 x i8], align 16
  %4 = alloca ptr, align 8
  store ptr %0, ptr %2, align 8, !tbaa !50
  call void @llvm.lifetime.start.p0(i64 40, ptr %3) #10
  %5 = load ptr, ptr @N_fontsize, align 8, !tbaa !8
  %6 = icmp ne ptr %5, null
  br i1 %6, label %7, label %29

7:                                                ; preds = %1
  call void @llvm.lifetime.start.p0(i64 8, ptr %4) #10
  %8 = load ptr, ptr %2, align 8, !tbaa !50
  %9 = load ptr, ptr @N_fontsize, align 8, !tbaa !8
  %10 = call ptr @agxget(ptr noundef %8, ptr noundef %9)
  store ptr %10, ptr %4, align 8, !tbaa !92
  %11 = load ptr, ptr %4, align 8, !tbaa !92
  %12 = load i8, ptr %11, align 1, !tbaa !21
  %13 = sext i8 %12 to i32
  %14 = icmp eq i32 %13, 0
  br i1 %14, label %15, label %28

15:                                               ; preds = %7
  %16 = getelementptr inbounds [40 x i8], ptr %3, i64 0, i64 0
  %17 = load ptr, ptr %2, align 8, !tbaa !50
  %18 = getelementptr inbounds nuw %struct.Agobj_s, ptr %17, i32 0, i32 1
  %19 = load ptr, ptr %18, align 8, !tbaa !24
  %20 = getelementptr inbounds nuw %struct.Agnodeinfo_t, ptr %19, i32 0, i32 7
  %21 = load double, ptr %20, align 8, !tbaa !88
  %22 = fmul double %21, 0x3FE6666666666666
  %23 = call i32 (ptr, i64, ptr, ...) @snprintf(ptr noundef %16, i64 noundef 40, ptr noundef @.str.7, double noundef %22) #10
  %24 = load ptr, ptr %2, align 8, !tbaa !50
  %25 = load ptr, ptr @N_fontsize, align 8, !tbaa !8
  %26 = getelementptr inbounds [40 x i8], ptr %3, i64 0, i64 0
  %27 = call i32 @agxset(ptr noundef %24, ptr noundef %25, ptr noundef %26)
  br label %28

28:                                               ; preds = %15, %7
  call void @llvm.lifetime.end.p0(i64 8, ptr %4) #10
  br label %29

29:                                               ; preds = %28, %1
  %30 = load ptr, ptr %2, align 8, !tbaa !50
  call void @common_init_node(ptr noundef %30)
  call void @llvm.lifetime.end.p0(i64 40, ptr %3) #10
  ret void
}

; Function Attrs: nounwind uwtable
define internal void @walkTree(ptr noundef %0) #0 {
  %2 = alloca ptr, align 8
  %3 = alloca ptr, align 8
  %4 = alloca ptr, align 8
  %5 = alloca %struct.pointf_s, align 8
  %6 = alloca %struct.rectangle, align 8
  %7 = alloca %struct.boxf, align 8
  %8 = alloca double, align 8
  %9 = alloca double, align 8
  %10 = alloca double, align 8
  %11 = alloca double, align 8
  store ptr %0, ptr %2, align 8, !tbaa !10
  call void @llvm.lifetime.start.p0(i64 8, ptr %3) #10
  call void @llvm.lifetime.start.p0(i64 8, ptr %4) #10
  call void @llvm.lifetime.start.p0(i64 16, ptr %5) #10
  call void @llvm.lifetime.start.p0(i64 32, ptr %6) #10
  call void @llvm.lifetime.start.p0(i64 32, ptr %7) #10
  call void @llvm.lifetime.start.p0(i64 8, ptr %8) #10
  call void @llvm.lifetime.start.p0(i64 8, ptr %9) #10
  call void @llvm.lifetime.start.p0(i64 8, ptr %10) #10
  call void @llvm.lifetime.start.p0(i64 8, ptr %11) #10
  %12 = load ptr, ptr %2, align 8, !tbaa !10
  %13 = getelementptr inbounds nuw %struct.treenode_t, ptr %12, i32 0, i32 6
  %14 = load i32, ptr %13, align 8, !tbaa !22
  %15 = icmp eq i32 %14, 0
  br i1 %15, label %16, label %82

16:                                               ; preds = %1
  %17 = load ptr, ptr %2, align 8, !tbaa !10
  %18 = getelementptr inbounds nuw %struct.treenode_t, ptr %17, i32 0, i32 3
  %19 = load ptr, ptr %18, align 8, !tbaa !63
  store ptr %19, ptr %3, align 8, !tbaa !10
  br label %20

20:                                               ; preds = %25, %16
  %21 = load ptr, ptr %3, align 8, !tbaa !10
  %22 = icmp ne ptr %21, null
  br i1 %22, label %23, label %29

23:                                               ; preds = %20
  %24 = load ptr, ptr %3, align 8, !tbaa !10
  call void @walkTree(ptr noundef %24)
  br label %25

25:                                               ; preds = %23
  %26 = load ptr, ptr %3, align 8, !tbaa !10
  %27 = getelementptr inbounds nuw %struct.treenode_t, ptr %26, i32 0, i32 4
  %28 = load ptr, ptr %27, align 8, !tbaa !47
  store ptr %28, ptr %3, align 8, !tbaa !10
  br label %20, !llvm.loop !74

29:                                               ; preds = %20
  %30 = load ptr, ptr %2, align 8, !tbaa !10
  %31 = getelementptr inbounds nuw %struct.treenode_t, ptr %30, i32 0, i32 2
  %32 = getelementptr inbounds nuw %struct.rectangle, ptr %31, i32 0, i32 0
  %33 = getelementptr inbounds [2 x double], ptr %32, i64 0, i64 0
  %34 = load double, ptr %33, align 8, !tbaa !18
  store double %34, ptr %8, align 8, !tbaa !18
  %35 = load ptr, ptr %2, align 8, !tbaa !10
  %36 = getelementptr inbounds nuw %struct.treenode_t, ptr %35, i32 0, i32 2
  %37 = getelementptr inbounds nuw %struct.rectangle, ptr %36, i32 0, i32 0
  %38 = getelementptr inbounds [2 x double], ptr %37, i64 0, i64 1
  %39 = load double, ptr %38, align 8, !tbaa !18
  store double %39, ptr %9, align 8, !tbaa !18
  %40 = load ptr, ptr %2, align 8, !tbaa !10
  %41 = getelementptr inbounds nuw %struct.treenode_t, ptr %40, i32 0, i32 2
  %42 = getelementptr inbounds nuw %struct.rectangle, ptr %41, i32 0, i32 1
  %43 = getelementptr inbounds [2 x double], ptr %42, i64 0, i64 0
  %44 = load double, ptr %43, align 8, !tbaa !18
  store double %44, ptr %10, align 8, !tbaa !18
  %45 = load ptr, ptr %2, align 8, !tbaa !10
  %46 = getelementptr inbounds nuw %struct.treenode_t, ptr %45, i32 0, i32 2
  %47 = getelementptr inbounds nuw %struct.rectangle, ptr %46, i32 0, i32 1
  %48 = getelementptr inbounds [2 x double], ptr %47, i64 0, i64 1
  %49 = load double, ptr %48, align 8, !tbaa !18
  store double %49, ptr %11, align 8, !tbaa !18
  %50 = load double, ptr %8, align 8, !tbaa !18
  %51 = load double, ptr %10, align 8, !tbaa !18
  %52 = fdiv double %51, 2.000000e+00
  %53 = fsub double %50, %52
  %54 = getelementptr inbounds nuw %struct.boxf, ptr %7, i32 0, i32 0
  %55 = getelementptr inbounds nuw %struct.pointf_s, ptr %54, i32 0, i32 0
  store double %53, ptr %55, align 8, !tbaa !75
  %56 = load double, ptr %9, align 8, !tbaa !18
  %57 = load double, ptr %11, align 8, !tbaa !18
  %58 = fdiv double %57, 2.000000e+00
  %59 = fsub double %56, %58
  %60 = getelementptr inbounds nuw %struct.boxf, ptr %7, i32 0, i32 0
  %61 = getelementptr inbounds nuw %struct.pointf_s, ptr %60, i32 0, i32 1
  store double %59, ptr %61, align 8, !tbaa !76
  %62 = getelementptr inbounds nuw %struct.boxf, ptr %7, i32 0, i32 0
  %63 = getelementptr inbounds nuw %struct.pointf_s, ptr %62, i32 0, i32 0
  %64 = load double, ptr %63, align 8, !tbaa !75
  %65 = load double, ptr %10, align 8, !tbaa !18
  %66 = fadd double %64, %65
  %67 = getelementptr inbounds nuw %struct.boxf, ptr %7, i32 0, i32 1
  %68 = getelementptr inbounds nuw %struct.pointf_s, ptr %67, i32 0, i32 0
  store double %66, ptr %68, align 8, !tbaa !77
  %69 = getelementptr inbounds nuw %struct.boxf, ptr %7, i32 0, i32 0
  %70 = getelementptr inbounds nuw %struct.pointf_s, ptr %69, i32 0, i32 1
  %71 = load double, ptr %70, align 8, !tbaa !76
  %72 = load double, ptr %11, align 8, !tbaa !18
  %73 = fadd double %71, %72
  %74 = getelementptr inbounds nuw %struct.boxf, ptr %7, i32 0, i32 1
  %75 = getelementptr inbounds nuw %struct.pointf_s, ptr %74, i32 0, i32 1
  store double %73, ptr %75, align 8, !tbaa !78
  %76 = load ptr, ptr %2, align 8, !tbaa !10
  %77 = getelementptr inbounds nuw %struct.treenode_t, ptr %76, i32 0, i32 5
  %78 = load ptr, ptr %77, align 8, !tbaa !21
  %79 = getelementptr inbounds nuw %struct.Agobj_s, ptr %78, i32 0, i32 1
  %80 = load ptr, ptr %79, align 8, !tbaa !24
  %81 = getelementptr inbounds nuw %struct.Agraphinfo_t, ptr %80, i32 0, i32 3
  call void @llvm.memcpy.p0.p0.i64(ptr align 8 %81, ptr align 8 %7, i64 32, i1 false), !tbaa.struct !79
  br label %163

82:                                               ; preds = %1
  %83 = load ptr, ptr %2, align 8, !tbaa !10
  %84 = getelementptr inbounds nuw %struct.treenode_t, ptr %83, i32 0, i32 2
  call void @llvm.memcpy.p0.p0.i64(ptr align 8 %6, ptr align 8 %84, i64 32, i1 false), !tbaa.struct !20
  %85 = getelementptr inbounds nuw %struct.rectangle, ptr %6, i32 0, i32 0
  %86 = getelementptr inbounds [2 x double], ptr %85, i64 0, i64 0
  %87 = load double, ptr %86, align 8, !tbaa !18
  %88 = getelementptr inbounds nuw %struct.pointf_s, ptr %5, i32 0, i32 0
  store double %87, ptr %88, align 8, !tbaa !80
  %89 = getelementptr inbounds nuw %struct.rectangle, ptr %6, i32 0, i32 0
  %90 = getelementptr inbounds [2 x double], ptr %89, i64 0, i64 1
  %91 = load double, ptr %90, align 8, !tbaa !18
  %92 = getelementptr inbounds nuw %struct.pointf_s, ptr %5, i32 0, i32 1
  store double %91, ptr %92, align 8, !tbaa !81
  %93 = load ptr, ptr %2, align 8, !tbaa !10
  %94 = getelementptr inbounds nuw %struct.treenode_t, ptr %93, i32 0, i32 5
  %95 = load ptr, ptr %94, align 8, !tbaa !21
  store ptr %95, ptr %4, align 8, !tbaa !50
  %96 = load ptr, ptr %4, align 8, !tbaa !50
  %97 = getelementptr inbounds nuw %struct.Agobj_s, ptr %96, i32 0, i32 1
  %98 = load ptr, ptr %97, align 8, !tbaa !24
  %99 = getelementptr inbounds nuw %struct.Agnodeinfo_t, ptr %98, i32 0, i32 3
  call void @llvm.memcpy.p0.p0.i64(ptr align 8 %99, ptr align 8 %5, i64 16, i1 false), !tbaa.struct !82
  %100 = getelementptr inbounds nuw %struct.rectangle, ptr %6, i32 0, i32 1
  %101 = getelementptr inbounds [2 x double], ptr %100, i64 0, i64 0
  %102 = load double, ptr %101, align 8, !tbaa !18
  %103 = fdiv double %102, 7.200000e+01
  %104 = load ptr, ptr %4, align 8, !tbaa !50
  %105 = getelementptr inbounds nuw %struct.Agobj_s, ptr %104, i32 0, i32 1
  %106 = load ptr, ptr %105, align 8, !tbaa !24
  %107 = getelementptr inbounds nuw %struct.Agnodeinfo_t, ptr %106, i32 0, i32 4
  store double %103, ptr %107, align 8, !tbaa !83
  %108 = getelementptr inbounds nuw %struct.rectangle, ptr %6, i32 0, i32 1
  %109 = getelementptr inbounds [2 x double], ptr %108, i64 0, i64 1
  %110 = load double, ptr %109, align 8, !tbaa !18
  %111 = fdiv double %110, 7.200000e+01
  %112 = load ptr, ptr %4, align 8, !tbaa !50
  %113 = getelementptr inbounds nuw %struct.Agobj_s, ptr %112, i32 0, i32 1
  %114 = load ptr, ptr %113, align 8, !tbaa !24
  %115 = getelementptr inbounds nuw %struct.Agnodeinfo_t, ptr %114, i32 0, i32 5
  store double %111, ptr %115, align 8, !tbaa !84
  %116 = load ptr, ptr %4, align 8, !tbaa !50
  %117 = load ptr, ptr %4, align 8, !tbaa !50
  %118 = call ptr @agraphof(ptr noundef %117)
  %119 = getelementptr inbounds nuw %struct.Agobj_s, ptr %118, i32 0, i32 1
  %120 = load ptr, ptr %119, align 8, !tbaa !24
  %121 = getelementptr inbounds nuw %struct.Agraphinfo_t, ptr %120, i32 0, i32 9
  %122 = load i32, ptr %121, align 4, !tbaa !85
  %123 = and i32 %122, 3
  %124 = and i32 %123, 1
  %125 = icmp ne i32 %124, 0
  call void @gv_nodesize(ptr noundef %116, i1 noundef zeroext %125)
  %126 = load ptr, ptr %4, align 8, !tbaa !50
  call void @finishNode(ptr noundef %126)
  %127 = load i8, ptr @Verbose, align 1, !tbaa !21
  %128 = icmp ne i8 %127, 0
  br i1 %128, label %129, label %162

129:                                              ; preds = %82
  %130 = load ptr, ptr @stderr, align 8, !tbaa !70
  %131 = load ptr, ptr %4, align 8, !tbaa !50
  %132 = call ptr @agnameof(ptr noundef %131)
  %133 = load ptr, ptr %4, align 8, !tbaa !50
  %134 = getelementptr inbounds nuw %struct.Agobj_s, ptr %133, i32 0, i32 1
  %135 = load ptr, ptr %134, align 8, !tbaa !24
  %136 = getelementptr inbounds nuw %struct.Agnodeinfo_t, ptr %135, i32 0, i32 3
  %137 = getelementptr inbounds nuw %struct.pointf_s, ptr %136, i32 0, i32 0
  %138 = load double, ptr %137, align 8, !tbaa !86
  %139 = load ptr, ptr %4, align 8, !tbaa !50
  %140 = getelementptr inbounds nuw %struct.Agobj_s, ptr %139, i32 0, i32 1
  %141 = load ptr, ptr %140, align 8, !tbaa !24
  %142 = getelementptr inbounds nuw %struct.Agnodeinfo_t, ptr %141, i32 0, i32 3
  %143 = getelementptr inbounds nuw %struct.pointf_s, ptr %142, i32 0, i32 1
  %144 = load double, ptr %143, align 8, !tbaa !87
  %145 = load ptr, ptr %4, align 8, !tbaa !50
  %146 = getelementptr inbounds nuw %struct.Agobj_s, ptr %145, i32 0, i32 1
  %147 = load ptr, ptr %146, align 8, !tbaa !24
  %148 = getelementptr inbounds nuw %struct.Agnodeinfo_t, ptr %147, i32 0, i32 7
  %149 = load double, ptr %148, align 8, !tbaa !88
  %150 = load ptr, ptr %4, align 8, !tbaa !50
  %151 = getelementptr inbounds nuw %struct.Agobj_s, ptr %150, i32 0, i32 1
  %152 = load ptr, ptr %151, align 8, !tbaa !24
  %153 = getelementptr inbounds nuw %struct.Agnodeinfo_t, ptr %152, i32 0, i32 8
  %154 = load double, ptr %153, align 8, !tbaa !89
  %155 = load ptr, ptr %4, align 8, !tbaa !50
  %156 = getelementptr inbounds nuw %struct.Agobj_s, ptr %155, i32 0, i32 1
  %157 = load ptr, ptr %156, align 8, !tbaa !24
  %158 = getelementptr inbounds nuw %struct.Agnodeinfo_t, ptr %157, i32 0, i32 9
  %159 = load double, ptr %158, align 8, !tbaa !90
  %160 = fadd double %154, %159
  %161 = call i32 (ptr, ptr, ...) @fprintf(ptr noundef %130, ptr noundef @.str.6, ptr noundef %132, double noundef %138, double noundef %144, double noundef %149, double noundef %160) #10
  br label %162

162:                                              ; preds = %129, %82
  br label %163

163:                                              ; preds = %162, %29
  call void @llvm.lifetime.end.p0(i64 8, ptr %11) #10
  call void @llvm.lifetime.end.p0(i64 8, ptr %10) #10
  call void @llvm.lifetime.end.p0(i64 8, ptr %9) #10
  call void @llvm.lifetime.end.p0(i64 8, ptr %8) #10
  call void @llvm.lifetime.end.p0(i64 32, ptr %7) #10
  call void @llvm.lifetime.end.p0(i64 32, ptr %6) #10
  call void @llvm.lifetime.end.p0(i64 16, ptr %5) #10
  call void @llvm.lifetime.end.p0(i64 8, ptr %4) #10
  call void @llvm.lifetime.end.p0(i64 8, ptr %3) #10
  ret void
}