; Function Attrs: nounwind uwtable
define internal fastcc void @walkTree(ptr noundef readonly captures(none) %0) unnamed_addr #0 {
  %2 = alloca [40 x i8], align 16
  %3 = getelementptr inbounds nuw i8, ptr %0, i64 72
  %4 = load i32, ptr %3, align 8, !tbaa !54
  %5 = icmp eq i32 %4, 0
  br i1 %5, label %6, label %28

6:                                                ; preds = %1
  %7 = getelementptr inbounds nuw i8, ptr %0, i64 48
  %.035 = load ptr, ptr %7, align 8, !tbaa !59
  %.not3436 = icmp eq ptr %.035, null
  br i1 %.not3436, label %._crit_edge, label %.lr.ph

.lr.ph:                                           ; preds = %6, %.lr.ph
  %.037 = phi ptr [ %.0, %.lr.ph ], [ %.035, %6 ]
  tail call fastcc void @walkTree(ptr noundef nonnull %.037)
  %8 = getelementptr inbounds nuw i8, ptr %.037, i64 56
  %.0 = load ptr, ptr %8, align 8, !tbaa !59
  %.not34 = icmp eq ptr %.0, null
  br i1 %.not34, label %._crit_edge, label %.lr.ph, !llvm.loop !68

._crit_edge:                                      ; preds = %.lr.ph, %6
  %9 = getelementptr inbounds nuw i8, ptr %0, i64 16
  %10 = load double, ptr %9, align 8, !tbaa !61
  %11 = getelementptr inbounds nuw i8, ptr %0, i64 24
  %12 = load double, ptr %11, align 8, !tbaa !61
  %13 = getelementptr inbounds nuw i8, ptr %0, i64 32
  %14 = load double, ptr %13, align 8, !tbaa !61
  %15 = getelementptr inbounds nuw i8, ptr %0, i64 40
  %16 = load double, ptr %15, align 8, !tbaa !61
  %17 = fmul double %14, 5.000000e-01
  %18 = fsub double %10, %17
  %19 = fmul double %16, 5.000000e-01
  %20 = fsub double %12, %19
  %21 = fadd double %14, %18
  %22 = fadd double %16, %20
  %23 = getelementptr inbounds nuw i8, ptr %0, i64 64
  %24 = load ptr, ptr %23, align 8, !tbaa !14
  %25 = getelementptr inbounds nuw i8, ptr %24, i64 16
  %26 = load ptr, ptr %25, align 8, !tbaa !17
  %27 = getelementptr inbounds nuw i8, ptr %26, i64 32
  store double %18, ptr %27, align 8, !tbaa !61
  %.sroa.5.0..sroa_idx = getelementptr inbounds nuw i8, ptr %26, i64 40
  store double %20, ptr %.sroa.5.0..sroa_idx, align 8, !tbaa !61
  %.sroa.7.0..sroa_idx = getelementptr inbounds nuw i8, ptr %26, i64 48
  store double %21, ptr %.sroa.7.0..sroa_idx, align 8, !tbaa !61
  %.sroa.8.0..sroa_idx = getelementptr inbounds nuw i8, ptr %26, i64 56
  store double %22, ptr %.sroa.8.0..sroa_idx, align 8, !tbaa !61
  br label %76

28:                                               ; preds = %1
  %29 = getelementptr inbounds nuw i8, ptr %0, i64 16
  %.sroa.06.0.copyload = load double, ptr %29, align 8
  %.sroa.4.0..sroa_idx = getelementptr inbounds nuw i8, ptr %0, i64 24
  %.sroa.4.0.copyload = load double, ptr %.sroa.4.0..sroa_idx, align 8, !tbaa !14
  %.sroa.57.0..sroa_idx = getelementptr inbounds nuw i8, ptr %0, i64 32
  %.sroa.57.0.copyload = load double, ptr %.sroa.57.0..sroa_idx, align 8
  %.sroa.6.0..sroa_idx = getelementptr inbounds nuw i8, ptr %0, i64 40
  %.sroa.6.0.copyload = load double, ptr %.sroa.6.0..sroa_idx, align 8, !tbaa !14
  %30 = getelementptr inbounds nuw i8, ptr %0, i64 64
  %31 = load ptr, ptr %30, align 8, !tbaa !14
  %32 = getelementptr inbounds nuw i8, ptr %31, i64 16
  %33 = load ptr, ptr %32, align 8, !tbaa !17
  %34 = getelementptr inbounds nuw i8, ptr %33, i64 32
  store double %.sroa.06.0.copyload, ptr %34, align 8, !tbaa !61
  %.sroa.49.0..sroa_idx = getelementptr inbounds nuw i8, ptr %33, i64 40
  store double %.sroa.4.0.copyload, ptr %.sroa.49.0..sroa_idx, align 8, !tbaa !61
  %35 = fdiv double %.sroa.57.0.copyload, 7.200000e+01
  %36 = getelementptr inbounds nuw i8, ptr %33, i64 48
  store double %35, ptr %36, align 8, !tbaa !69
  %37 = fdiv double %.sroa.6.0.copyload, 7.200000e+01
  %38 = getelementptr inbounds nuw i8, ptr %33, i64 56
  store double %37, ptr %38, align 8, !tbaa !70
  %39 = tail call ptr @agraphof(ptr noundef %31) #14
  %40 = getelementptr inbounds nuw i8, ptr %39, i64 16
  %41 = load ptr, ptr %40, align 8, !tbaa !17
  %42 = getelementptr inbounds nuw i8, ptr %41, i64 132
  %43 = load i32, ptr %42, align 4, !tbaa !71
  %44 = and i32 %43, 1
  %45 = icmp ne i32 %44, 0
  tail call void @gv_nodesize(ptr noundef %31, i1 noundef zeroext %45) #14
  call void @llvm.lifetime.start.p0(i64 40, ptr nonnull %2) #14
  %46 = load ptr, ptr @N_fontsize, align 8, !tbaa !72
  %.not.i = icmp eq ptr %46, null
  br i1 %.not.i, label %finishNode.exit, label %47

47:                                               ; preds = %28
  %48 = tail call ptr @agxget(ptr noundef nonnull %31, ptr noundef nonnull %46) #14
  %49 = load i8, ptr %48, align 1, !tbaa !14
  %50 = icmp eq i8 %49, 0
  br i1 %50, label %51, label %finishNode.exit

51:                                               ; preds = %47
  %52 = load ptr, ptr %32, align 8, !tbaa !17
  %53 = getelementptr inbounds nuw i8, ptr %52, i64 96
  %54 = load double, ptr %53, align 8, !tbaa !74
  %55 = fmul double %54, 0x3FE6666666666666
  %56 = call i32 (ptr, i64, ptr, ...) @snprintf(ptr noundef nonnull dereferenceable(1) %2, i64 noundef 40, ptr noundef nonnull @.str.7, double noundef %55) #14
  %57 = load ptr, ptr @N_fontsize, align 8, !tbaa !72
  %58 = call i32 @agxset(ptr noundef nonnull %31, ptr noundef %57, ptr noundef nonnull %2) #14
  br label %finishNode.exit

finishNode.exit:                                  ; preds = %28, %47, %51
  call void @common_init_node(ptr noundef nonnull %31) #14
  call void @llvm.lifetime.end.p0(i64 40, ptr nonnull %2) #14
  %59 = load i8, ptr @Verbose, align 1, !tbaa !14
  %.not = icmp eq i8 %59, 0
  br i1 %.not, label %76, label %60

60:                                               ; preds = %finishNode.exit
  %61 = load ptr, ptr @stderr, align 8, !tbaa !15
  %62 = call ptr @agnameof(ptr noundef nonnull %31) #14
  %63 = load ptr, ptr %32, align 8, !tbaa !17
  %64 = getelementptr inbounds nuw i8, ptr %63, i64 32
  %65 = load double, ptr %64, align 8, !tbaa !75
  %66 = getelementptr inbounds nuw i8, ptr %63, i64 40
  %67 = load double, ptr %66, align 8, !tbaa !76
  %68 = getelementptr inbounds nuw i8, ptr %63, i64 96
  %69 = load double, ptr %68, align 8, !tbaa !74
  %70 = getelementptr inbounds nuw i8, ptr %63, i64 104
  %71 = load double, ptr %70, align 8, !tbaa !77
  %72 = getelementptr inbounds nuw i8, ptr %63, i64 112
  %73 = load double, ptr %72, align 8, !tbaa !78
  %74 = fadd double %71, %73
  %75 = call i32 (ptr, ptr, ...) @fprintf(ptr noundef %61, ptr noundef nonnull @.str.6, ptr noundef %62, double noundef %65, double noundef %67, double noundef %69, double noundef %74) #16
  br label %76

76:                                               ; preds = %finishNode.exit, %60, %._crit_edge
  ret void
}